
labcode:     file format elf32-littleriscv
labcode
architecture: riscv:rv32, flags 0x00000012:
EXEC_P, HAS_SYMS
start address 0x00000000

Program Header:
    LOAD off    0x00000060 vaddr 0x00000000 paddr 0x00000000 align 2**4
         filesz 0x00000800 memsz 0x00000800 flags rwx

Sections:
Idx Name          Size      VMA       LMA       File off  Algn
  0 .text         000000f0  00000000  00000000  00000060  2**4
                  CONTENTS, ALLOC, LOAD, CODE
  1 .data         00000400  00000400  00000400  00000460  2**4
                  CONTENTS, ALLOC, LOAD, DATA
  2 .riscv.attributes 0000001c  00000000  00000000  00000860  2**0
                  CONTENTS, READONLY
  3 .comment      00000011  00000000  00000000  0000087c  2**0
                  CONTENTS, READONLY
  4 .debug_line   00000132  00000000  00000000  0000088d  2**0
                  CONTENTS, READONLY, DEBUGGING, OCTETS
  5 .debug_info   000000d3  00000000  00000000  000009bf  2**0
                  CONTENTS, READONLY, DEBUGGING, OCTETS
  6 .debug_abbrev 000000ae  00000000  00000000  00000a92  2**0
                  CONTENTS, READONLY, DEBUGGING, OCTETS
  7 .debug_aranges 00000040  00000000  00000000  00000b40  2**3
                  CONTENTS, READONLY, DEBUGGING, OCTETS
  8 .debug_str    000000dd  00000000  00000000  00000b80  2**0
                  CONTENTS, READONLY, DEBUGGING, OCTETS
  9 .debug_frame  00000050  00000000  00000000  00000c60  2**2
                  CONTENTS, READONLY, DEBUGGING, OCTETS
SYMBOL TABLE:
00000000 l    d  .text	00000000 .text
00000400 l    d  .data	00000000 .data
00000000 l    d  .riscv.attributes	00000000 .riscv.attributes
00000000 l    d  .comment	00000000 .comment
00000000 l    d  .debug_line	00000000 .debug_line
00000000 l    d  .debug_info	00000000 .debug_info
00000000 l    d  .debug_abbrev	00000000 .debug_abbrev
00000000 l    d  .debug_aranges	00000000 .debug_aranges
00000000 l    d  .debug_str	00000000 .debug_str
00000000 l    d  .debug_frame	00000000 .debug_frame
00000000 l    df *ABS*	00000000 lab0.o
00000400 l       .data	00000000 stack
00000000 l    df *ABS*	00000000 SevenSeg.c
000000b8 g     F .text	00000038 display
00000010 g     F .text	000000a8 SevenSeg



Disassembly of section .text:

00000000 <SevenSeg-0x10>:
.text
.align 4

	la sp, stack
   0:	40000113          	li	sp,1024
	j	SevenSeg
   4:	00c0006f          	j	10 <SevenSeg>
	...

00000010 <SevenSeg>:
#include "SevenSeg.h"

void display (int);

void SevenSeg()
{
  10:	fe010113          	addi	sp,sp,-32
  14:	00112e23          	sw	ra,28(sp)
  18:	00812c23          	sw	s0,24(sp)
  1c:	02010413          	addi	s0,sp,32
	unsigned int * led_addr  = (unsigned int *) LEDG;
  20:	ffff27b7          	lui	a5,0xffff2
  24:	00878793          	addi	a5,a5,8 # ffff2008 <stack+0xffff1c08>
  28:	fef42223          	sw	a5,-28(s0)
	unsigned int i, data;

	data = 0x155;
  2c:	15500793          	li	a5,341
  30:	fef42423          	sw	a5,-24(s0)


	while (1){

		display(SEG_1);
  34:	07900513          	li	a0,121
  38:	080000ef          	jal	ra,b8 <display>
		*led_addr  = data;
  3c:	fe442783          	lw	a5,-28(s0)
  40:	fe842703          	lw	a4,-24(s0)
  44:	00e7a023          	sw	a4,0(a5)
	    data = data ^ 0x3FF;
  48:	fe842783          	lw	a5,-24(s0)
  4c:	3ff7c793          	xori	a5,a5,1023
  50:	fef42423          	sw	a5,-24(s0)

		//for (i=0; i<0xFFFFF; i++) ;
		for (i=0; i<0x2; i++) ;
  54:	fe042623          	sw	zero,-20(s0)
  58:	0100006f          	j	68 <SevenSeg+0x58>
  5c:	fec42783          	lw	a5,-20(s0)
  60:	00178793          	addi	a5,a5,1
  64:	fef42623          	sw	a5,-20(s0)
  68:	fec42703          	lw	a4,-20(s0)
  6c:	00100793          	li	a5,1
  70:	fee7f6e3          	bgeu	a5,a4,5c <SevenSeg+0x4c>

		display(SEG_2);
  74:	02400513          	li	a0,36
  78:	040000ef          	jal	ra,b8 <display>
		*led_addr  = data;
  7c:	fe442783          	lw	a5,-28(s0)
  80:	fe842703          	lw	a4,-24(s0)
  84:	00e7a023          	sw	a4,0(a5)
	    data = data ^ 0x3FF;
  88:	fe842783          	lw	a5,-24(s0)
  8c:	3ff7c793          	xori	a5,a5,1023
  90:	fef42423          	sw	a5,-24(s0)

		//for (i=0; i<0xFFFFF; i++) ;
		for (i=0; i<0x2; i++) ;
  94:	fe042623          	sw	zero,-20(s0)
  98:	0100006f          	j	a8 <SevenSeg+0x98>
  9c:	fec42783          	lw	a5,-20(s0)
  a0:	00178793          	addi	a5,a5,1
  a4:	fef42623          	sw	a5,-20(s0)
  a8:	fec42703          	lw	a4,-20(s0)
  ac:	00100793          	li	a5,1
  b0:	fee7f6e3          	bgeu	a5,a4,9c <SevenSeg+0x8c>
		display(SEG_1);
  b4:	f81ff06f          	j	34 <SevenSeg+0x24>

000000b8 <display>:

}


void display (int num)
{
  b8:	fd010113          	addi	sp,sp,-48
  bc:	02812623          	sw	s0,44(sp)
  c0:	03010413          	addi	s0,sp,48
  c4:	fca42e23          	sw	a0,-36(s0)
	unsigned int * seg0_addr = (unsigned int *) SevenSeg0;
  c8:	ffff27b7          	lui	a5,0xffff2
  cc:	00c78793          	addi	a5,a5,12 # ffff200c <stack+0xffff1c0c>
  d0:	fef42623          	sw	a5,-20(s0)

	*seg0_addr = num;
  d4:	fdc42703          	lw	a4,-36(s0)
  d8:	fec42783          	lw	a5,-20(s0)
  dc:	00e7a023          	sw	a4,0(a5)

	return;
  e0:	00000013          	nop
}
  e4:	02c12403          	lw	s0,44(sp)
  e8:	03010113          	addi	sp,sp,48
  ec:	00008067          	ret
